target datalayout = "e-m:e-p270:32:32-p271:32:32-p272:64:64-i64:64-i128:128-f80:128-n8:16:32:64-S128"
target triple = "x86_64-pc-linux-gnu"

@offset = internal global [5 x i32] zeroinitializer, align 16
@bit_grid = internal global ptr null, align 8

; Function Attrs: nounwind uwtable
define internal void @_set_min_max_of_grid(i32 noundef %0, i32 noundef %1, ptr noundef %2, ptr noundef %3, ptr noundef %4, ptr noundef %5, ptr noundef %6, i32 noundef %7) #0 {
  %9 = alloca i32, align 4
  %10 = alloca i32, align 4
  %11 = alloca ptr, align 8
  %12 = alloca ptr, align 8
  %13 = alloca ptr, align 8
  %14 = alloca ptr, align 8
  %15 = alloca ptr, align 8
  %16 = alloca i32, align 4
  %17 = alloca i32, align 4
  %18 = alloca i32, align 4
  store i32 %0, ptr %9, align 4
  store i32 %1, ptr %10, align 4
  store ptr %2, ptr %11, align 8
  store ptr %3, ptr %12, align 8
  store ptr %4, ptr %13, align 8
  store ptr %5, ptr %14, align 8
  store ptr %6, ptr %15, align 8
  store i32 %7, ptr %16, align 4
  call void @llvm.lifetime.start.p0(i64 4, ptr %17) #13
  call void @llvm.lifetime.start.p0(i64 4, ptr %18) #13
  %19 = load i32, ptr %10, align 4
  store i32 %19, ptr %18, align 4
  %20 = load ptr, ptr %11, align 8
  %21 = load i32, ptr %9, align 4
  %22 = sext i32 %21 to i64
  %23 = getelementptr inbounds i32, ptr %20, i64 %22
  %24 = load i32, ptr %23, align 4
  %25 = load ptr, ptr %15, align 8
  %26 = load i32, ptr %9, align 4
  %27 = sext i32 %26 to i64
  %28 = getelementptr inbounds i32, ptr %25, i64 %27
  store i32 %24, ptr %28, align 4
  br label %29

29:                                               ; preds = %144, %8
  %30 = load ptr, ptr %15, align 8
  %31 = load i32, ptr %9, align 4
  %32 = sext i32 %31 to i64
  %33 = getelementptr inbounds i32, ptr %30, i64 %32
  %34 = load i32, ptr %33, align 4
  %35 = load ptr, ptr %12, align 8
  %36 = load i32, ptr %9, align 4
  %37 = sext i32 %36 to i64
  %38 = getelementptr inbounds i32, ptr %35, i64 %37
  %39 = load i32, ptr %38, align 4
  %40 = icmp sle i32 %34, %39
  br i1 %40, label %41, label %151

41:                                               ; preds = %29
  %42 = load i32, ptr %18, align 4
  %43 = load ptr, ptr %15, align 8
  %44 = load i32, ptr %9, align 4
  %45 = sext i32 %44 to i64
  %46 = getelementptr inbounds i32, ptr %43, i64 %45
  %47 = load i32, ptr %46, align 4
  %48 = load i32, ptr %9, align 4
  %49 = sext i32 %48 to i64
  %50 = getelementptr inbounds [5 x i32], ptr @offset, i64 0, i64 %49
  %51 = load i32, ptr %50, align 4
  %52 = mul nsw i32 %47, %51
  %53 = add nsw i32 %42, %52
  store i32 %53, ptr %10, align 4
  %54 = load i32, ptr %9, align 4
  %55 = load i32, ptr %16, align 4
  %56 = sub nsw i32 %55, 1
  %57 = icmp eq i32 %54, %56
  br i1 %57, label %58, label %133

58:                                               ; preds = %41
  %59 = load ptr, ptr @bit_grid, align 8
  %60 = load i32, ptr %10, align 4
  %61 = sext i32 %60 to i64
  %62 = call i32 @slurm_bit_test(ptr noundef %59, i64 noundef %61)
  %63 = icmp ne i32 %62, 0
  br i1 %63, label %65, label %64

64:                                               ; preds = %58
  br label %144

65:                                               ; preds = %58
  store i32 0, ptr %17, align 4
  br label %66

66:                                               ; preds = %129, %65
  %67 = load i32, ptr %17, align 4
  %68 = load i32, ptr %16, align 4
  %69 = icmp slt i32 %67, %68
  br i1 %69, label %70, label %132

70:                                               ; preds = %66
  %71 = load ptr, ptr %13, align 8
  %72 = load i32, ptr %17, align 4
  %73 = sext i32 %72 to i64
  %74 = getelementptr inbounds i32, ptr %71, i64 %73
  %75 = load i32, ptr %74, align 4
  %76 = load ptr, ptr %15, align 8
  %77 = load i32, ptr %17, align 4
  %78 = sext i32 %77 to i64
  %79 = getelementptr inbounds i32, ptr %76, i64 %78
  %80 = load i32, ptr %79, align 4
  %81 = icmp slt i32 %75, %80
  br i1 %81, label %82, label %88

82:                                               ; preds = %70
  %83 = load ptr, ptr %13, align 8
  %84 = load i32, ptr %17, align 4
  %85 = sext i32 %84 to i64
  %86 = getelementptr inbounds i32, ptr %83, i64 %85
  %87 = load i32, ptr %86, align 4
  br label %94

88:                                               ; preds = %70
  %89 = load ptr, ptr %15, align 8
  %90 = load i32, ptr %17, align 4
  %91 = sext i32 %90 to i64
  %92 = getelementptr inbounds i32, ptr %89, i64 %91
  %93 = load i32, ptr %92, align 4
  br label %94

94:                                               ; preds = %88, %82
  %95 = phi i32 [ %87, %82 ], [ %93, %88 ]
  %96 = load ptr, ptr %13, align 8
  %97 = load i32, ptr %17, align 4
  %98 = sext i32 %97 to i64
  %99 = getelementptr inbounds i32, ptr %96, i64 %98
  store i32 %95, ptr %99, align 4
  %100 = load ptr, ptr %14, align 8
  %101 = load i32, ptr %17, align 4
  %102 = sext i32 %101 to i64
  %103 = getelementptr inbounds i32, ptr %100, i64 %102
  %104 = load i32, ptr %103, align 4
  %105 = load ptr, ptr %15, align 8
  %106 = load i32, ptr %17, align 4
  %107 = sext i32 %106 to i64
  %108 = getelementptr inbounds i32, ptr %105, i64 %107
  %109 = load i32, ptr %108, align 4
  %110 = icmp sgt i32 %104, %109
  br i1 %110, label %111, label %117

111:                                              ; preds = %94
  %112 = load ptr, ptr %14, align 8
  %113 = load i32, ptr %17, align 4
  %114 = sext i32 %113 to i64
  %115 = getelementptr inbounds i32, ptr %112, i64 %114
  %116 = load i32, ptr %115, align 4
  br label %123

117:                                              ; preds = %94
  %118 = load ptr, ptr %15, align 8
  %119 = load i32, ptr %17, align 4
  %120 = sext i32 %119 to i64
  %121 = getelementptr inbounds i32, ptr %118, i64 %120
  %122 = load i32, ptr %121, align 4
  br label %123

123:                                              ; preds = %117, %111
  %124 = phi i32 [ %116, %111 ], [ %122, %117 ]
  %125 = load ptr, ptr %14, align 8
  %126 = load i32, ptr %17, align 4
  %127 = sext i32 %126 to i64
  %128 = getelementptr inbounds i32, ptr %125, i64 %127
  store i32 %124, ptr %128, align 4
  br label %129

129:                                              ; preds = %123
  %130 = load i32, ptr %17, align 4
  %131 = add nsw i32 %130, 1
  store i32 %131, ptr %17, align 4
  br label %66, !llvm.loop !83

132:                                              ; preds = %66
  br label %143

133:                                              ; preds = %41
  %134 = load i32, ptr %9, align 4
  %135 = add nsw i32 %134, 1
  %136 = load i32, ptr %10, align 4
  %137 = load ptr, ptr %11, align 8
  %138 = load ptr, ptr %12, align 8
  %139 = load ptr, ptr %13, align 8
  %140 = load ptr, ptr %14, align 8
  %141 = load ptr, ptr %15, align 8
  %142 = load i32, ptr %16, align 4
  call void @_set_min_max_of_grid(i32 noundef %135, i32 noundef %136, ptr noundef %137, ptr noundef %138, ptr noundef %139, ptr noundef %140, ptr noundef %141, i32 noundef %142)
  br label %143

143:                                              ; preds = %133, %132
  br label %144

144:                                              ; preds = %143, %64
  %145 = load ptr, ptr %15, align 8
  %146 = load i32, ptr %9, align 4
  %147 = sext i32 %146 to i64
  %148 = getelementptr inbounds i32, ptr %145, i64 %147
  %149 = load i32, ptr %148, align 4
  %150 = add nsw i32 %149, 1
  store i32 %150, ptr %148, align 4
  br label %29, !llvm.loop !84

151:                                              ; preds = %29
  call void @llvm.lifetime.end.p0(i64 4, ptr %18) #13
  call void @llvm.lifetime.end.p0(i64 4, ptr %17) #13
  ret void
}