; Function Attrs: nounwind uwtable
define internal fastcc void @_set_min_max_of_grid(i32 noundef %0, i32 noundef %1, ptr noundef nonnull captures(none) %2, ptr noundef nonnull captures(none) %3, ptr noundef nonnull captures(none) %4, i32 noundef range(i32 2, -2147483648) %5) unnamed_addr #0 {
  %7 = sext i32 %0 to i64
  %8 = getelementptr inbounds i32, ptr @grid_start, i64 %7
  %9 = load i32, ptr %8, align 4
  %10 = getelementptr inbounds i32, ptr %4, i64 %7
  %11 = getelementptr inbounds i32, ptr @_get_next_box.orig_grid_end, i64 %7
  store i32 %9, ptr %10, align 4
  %12 = load i32, ptr %11, align 4
  %.not2 = icmp sgt i32 %9, %12
  br i1 %.not2, label %._crit_edge, label %.lr.ph

.lr.ph:                                           ; preds = %6
  %13 = getelementptr inbounds [5 x i32], ptr @offset, i64 0, i64 %7
  %14 = add nsw i32 %5, -1
  %15 = icmp eq i32 %0, %14
  %16 = add nsw i32 %0, 1
  br i1 %15, label %.lr.ph.split.us.preheader, label %.lr.ph.split

.lr.ph.split.us.preheader:                        ; preds = %.lr.ph
  %wide.trip.count = zext nneg i32 %5 to i64
  br label %.lr.ph.split.us

.lr.ph.split.us:                                  ; preds = %.lr.ph.split.us.preheader, %.loopexit.us
  %storemerge3.us = phi i32 [ %32, %.loopexit.us ], [ %9, %.lr.ph.split.us.preheader ]
  %17 = load i32, ptr %13, align 4
  %18 = mul nsw i32 %17, %storemerge3.us
  %19 = add nsw i32 %18, %1
  %20 = load ptr, ptr @bit_grid, align 8
  %21 = sext i32 %19 to i64
  %22 = tail call i32 @slurm_bit_test(ptr noundef %20, i64 noundef %21) #22
  %.not54.us = icmp eq i32 %22, 0
  br i1 %.not54.us, label %.loopexit.us, label %.preheader.us

.preheader.us:                                    ; preds = %.lr.ph.split.us, %.preheader.us
  %indvars.iv = phi i64 [ %indvars.iv.next, %.preheader.us ], [ 0, %.lr.ph.split.us ]
  %23 = getelementptr inbounds nuw i32, ptr %2, i64 %indvars.iv
  %24 = load i32, ptr %23, align 4
  %25 = getelementptr inbounds nuw i32, ptr %4, i64 %indvars.iv
  %26 = load i32, ptr %25, align 4
  %..us = tail call i32 @llvm.smin.i32(i32 %24, i32 %26)
  store i32 %..us, ptr %23, align 4
  %27 = getelementptr inbounds nuw i32, ptr %3, i64 %indvars.iv
  %28 = load i32, ptr %27, align 4
  %29 = load i32, ptr %25, align 4
  %30 = tail call i32 @llvm.smax.i32(i32 %28, i32 %29)
  store i32 %30, ptr %27, align 4
  %indvars.iv.next = add nuw nsw i64 %indvars.iv, 1
  %exitcond.not = icmp eq i64 %indvars.iv.next, %wide.trip.count
  br i1 %exitcond.not, label %.loopexit.us, label %.preheader.us, !llvm.loop !81

.loopexit.us:                                     ; preds = %.preheader.us, %.lr.ph.split.us
  %31 = load i32, ptr %10, align 4
  %32 = add nsw i32 %31, 1
  store i32 %32, ptr %10, align 4
  %33 = load i32, ptr %11, align 4
  %.not.us.not = icmp slt i32 %31, %33
  br i1 %.not.us.not, label %.lr.ph.split.us, label %._crit_edge, !llvm.loop !82

.lr.ph.split:                                     ; preds = %.lr.ph, %.lr.ph.split
  %storemerge3 = phi i32 [ %38, %.lr.ph.split ], [ %9, %.lr.ph ]
  %34 = load i32, ptr %13, align 4
  %35 = mul nsw i32 %34, %storemerge3
  %36 = add nsw i32 %35, %1
  tail call fastcc void @_set_min_max_of_grid(i32 noundef %16, i32 noundef %36, ptr noundef %2, ptr noundef %3, ptr noundef %4, i32 noundef %5)
  %37 = load i32, ptr %10, align 4
  %38 = add nsw i32 %37, 1
  store i32 %38, ptr %10, align 4
  %39 = load i32, ptr %11, align 4
  %.not.not = icmp slt i32 %37, %39
  br i1 %.not.not, label %.lr.ph.split, label %._crit_edge, !llvm.loop !82

._crit_edge:                                      ; preds = %.lr.ph.split, %.loopexit.us, %6
  ret void
}